; Function Attrs: mustprogress uwtable
define hidden void @_ZNK6Assimp3FBX12MeshGeometry26GetTextureCoordChannelNameB5cxx11Ej(ptr noalias sret(%"class.std::__cxx11::basic_string") align 8 %agg.result, ptr noundef nonnull align 8 dereferenceable(1000) %this, i32 noundef %index) local_unnamed_addr #0 align 2 personality ptr @__gxx_personality_v0 {
entry:
  %ref.tmp = alloca %"class.std::allocator", align 1
  %cmp = icmp ugt i32 %index, 7
  br i1 %cmp, label %cond.true, label %cond.false

cond.true:                                        ; preds = %entry
  call void @_ZNSaIcEC1Ev(ptr noundef nonnull align 1 dereferenceable(1) %ref.tmp) #23
  %call.i2 = invoke noundef ptr @_ZNSt7__cxx1112basic_stringIcSt11char_traitsIcESaIcEE13_M_local_dataEv(ptr noundef nonnull align 8 dereferenceable(32) %agg.result)
          to label %call.i.noexc unwind label %lpad.body.thread6

call.i.noexc:                                     ; preds = %cond.true
  invoke void @_ZNSt7__cxx1112basic_stringIcSt11char_traitsIcESaIcEE12_Alloc_hiderC1EPcRKS3_(ptr noundef nonnull align 8 dereferenceable(8) %agg.result, ptr noundef %call.i2, ptr noundef nonnull align 1 dereferenceable(1) %ref.tmp)
          to label %.noexc unwind label %lpad.body.thread6

.noexc:                                           ; preds = %call.i.noexc
  invoke void @_ZNSt7__cxx1112basic_stringIcSt11char_traitsIcESaIcEE12_M_constructIPKcEEvT_S8_St20forward_iterator_tag(ptr noundef nonnull align 8 dereferenceable(32) %agg.result, ptr noundef nonnull @.str.12, ptr noundef nonnull @.str.12)
          to label %cleanup.action unwind label %lpad.body.thread

lpad.body.thread:                                 ; preds = %.noexc
  %0 = landingpad { ptr, i32 }
          cleanup
  call void @_ZNSaIcED2Ev(ptr noundef nonnull align 1 dereferenceable(1) %agg.result) #23
  br label %cleanup.action4

cond.false:                                       ; preds = %entry
  %m_uvNames = getelementptr inbounds i8, ptr %this, i64 288
  %idxprom = zext nneg i32 %index to i64
  %arrayidx = getelementptr inbounds [8 x %"class.std::__cxx11::basic_string"], ptr %m_uvNames, i64 0, i64 %idxprom
  tail call void @_ZNSt7__cxx1112basic_stringIcSt11char_traitsIcESaIcEEC1ERKS4_(ptr noundef nonnull align 8 dereferenceable(32) %agg.result, ptr noundef nonnull align 8 dereferenceable(32) %arrayidx)
  br label %cleanup.done

cleanup.action:                                   ; preds = %.noexc
  call void @_ZNSaIcED1Ev(ptr noundef nonnull align 1 dereferenceable(1) %ref.tmp) #23
  br label %cleanup.done

cleanup.done:                                     ; preds = %cond.false, %cleanup.action
  ret void

lpad.body.thread6:                                ; preds = %cond.true, %call.i.noexc
  %lpad.thr_comm = landingpad { ptr, i32 }
          cleanup
  br label %cleanup.action4

cleanup.action4:                                  ; preds = %lpad.body.thread6, %lpad.body.thread
  %eh.lpad-body5 = phi { ptr, i32 } [ %0, %lpad.body.thread ], [ %lpad.thr_comm, %lpad.body.thread6 ]
  call void @_ZNSaIcED1Ev(ptr noundef nonnull align 1 dereferenceable(1) %ref.tmp) #23
  resume { ptr, i32 } %eh.lpad-body5
}